; ModuleID = '20/451.c'
source_filename = "20/451.c"
target datalayout = "e-m:e-p270:32:32-p271:32:32-p272:64:64-i64:64-f80:128-n8:16:32:64-S128"
target triple = "x86_64-pc-linux-gnu"

@.str = private unnamed_addr constant [6 x i8] c"%s %s\00", align 1
@.str.1 = private unnamed_addr constant [4 x i8] c"%s\0A\00", align 1

; Function Attrs: noinline nounwind uwtable
define dso_local void @f(i8* %0, i8* %1) #0 {
  %3 = alloca i8*, align 8
  %4 = alloca i8*, align 8
  %5 = alloca i32, align 4
  %6 = alloca i32, align 4
  %7 = alloca i32, align 4
  %8 = alloca i32, align 4
  %9 = alloca i32, align 4
  %10 = alloca i8, align 1
  store i8* %0, i8** %3, align 8
  store i8* %1, i8** %4, align 8
  %11 = load i8*, i8** %3, align 8
  %12 = call i64 @strlen(i8* %11) #3
  %13 = trunc i64 %12 to i32
  store i32 %13, i32* %5, align 4
  %14 = load i8*, i8** %4, align 8
  %15 = call i64 @strlen(i8* %14) #3
  %16 = trunc i64 %15 to i32
  store i32 %16, i32* %6, align 4
  store i32 0, i32* %8, align 4
  %17 = load i8*, i8** %3, align 8
  %18 = getelementptr inbounds i8, i8* %17, i64 0
  %19 = load i8, i8* %18, align 1
  store i8 %19, i8* %10, align 1
  store i32 0, i32* %7, align 4
  br label %20

20:                                               ; preds = %43, %2
  %21 = load i32, i32* %7, align 4
  %22 = load i32, i32* %5, align 4
  %23 = sub nsw i32 %22, 1
  %24 = icmp sle i32 %21, %23
  br i1 %24, label %25, label %46

25:                                               ; preds = %20
  %26 = load i8*, i8** %3, align 8
  %27 = load i32, i32* %7, align 4
  %28 = sext i32 %27 to i64
  %29 = getelementptr inbounds i8, i8* %26, i64 %28
  %30 = load i8, i8* %29, align 1
  %31 = sext i8 %30 to i32
  %32 = load i8, i8* %10, align 1
  %33 = sext i8 %32 to i32
  %34 = icmp sgt i32 %31, %33
  br i1 %34, label %35, label %42

35:                                               ; preds = %25
  %36 = load i32, i32* %7, align 4
  store i32 %36, i32* %8, align 4
  %37 = load i8*, i8** %3, align 8
  %38 = load i32, i32* %7, align 4
  %39 = sext i32 %38 to i64
  %40 = getelementptr inbounds i8, i8* %37, i64 %39
  %41 = load i8, i8* %40, align 1
  store i8 %41, i8* %10, align 1
  br label %42

42:                                               ; preds = %35, %25
  br label %43

43:                                               ; preds = %42
  %44 = load i32, i32* %7, align 4
  %45 = add nsw i32 %44, 1
  store i32 %45, i32* %7, align 4
  br label %20

46:                                               ; preds = %20
  %47 = load i32, i32* %5, align 4
  %48 = sub nsw i32 %47, 1
  store i32 %48, i32* %7, align 4
  br label %49

49:                                               ; preds = %65, %46
  %50 = load i32, i32* %7, align 4
  %51 = load i32, i32* %8, align 4
  %52 = add nsw i32 %51, 1
  %53 = icmp sge i32 %50, %52
  br i1 %53, label %54, label %68

54:                                               ; preds = %49
  %55 = load i8*, i8** %3, align 8
  %56 = load i32, i32* %7, align 4
  %57 = sext i32 %56 to i64
  %58 = getelementptr inbounds i8, i8* %55, i64 %57
  %59 = load i8, i8* %58, align 1
  %60 = load i8*, i8** %3, align 8
  %61 = load i32, i32* %7, align 4
  %62 = add nsw i32 %61, 3
  %63 = sext i32 %62 to i64
  %64 = getelementptr inbounds i8, i8* %60, i64 %63
  store i8 %59, i8* %64, align 1
  br label %65

65:                                               ; preds = %54
  %66 = load i32, i32* %7, align 4
  %67 = add nsw i32 %66, -1
  store i32 %67, i32* %7, align 4
  br label %49

68:                                               ; preds = %49
  %69 = load i32, i32* %8, align 4
  %70 = add nsw i32 %69, 1
  store i32 %70, i32* %7, align 4
  br label %71

71:                                               ; preds = %89, %68
  %72 = load i32, i32* %7, align 4
  %73 = load i32, i32* %8, align 4
  %74 = add nsw i32 %73, 3
  %75 = icmp sle i32 %72, %74
  br i1 %75, label %76, label %92

76:                                               ; preds = %71
  %77 = load i8*, i8** %4, align 8
  %78 = load i32, i32* %7, align 4
  %79 = load i32, i32* %8, align 4
  %80 = sub nsw i32 %78, %79
  %81 = sub nsw i32 %80, 1
  %82 = sext i32 %81 to i64
  %83 = getelementptr inbounds i8, i8* %77, i64 %82
  %84 = load i8, i8* %83, align 1
  %85 = load i8*, i8** %3, align 8
  %86 = load i32, i32* %7, align 4
  %87 = sext i32 %86 to i64
  %88 = getelementptr inbounds i8, i8* %85, i64 %87
  store i8 %84, i8* %88, align 1
  br label %89

89:                                               ; preds = %76
  %90 = load i32, i32* %7, align 4
  %91 = add nsw i32 %90, 1
  store i32 %91, i32* %7, align 4
  br label %71

92:                                               ; preds = %71
  %93 = load i8*, i8** %3, align 8
  %94 = load i32, i32* %5, align 4
  %95 = add nsw i32 %94, 3
  %96 = sext i32 %95 to i64
  %97 = getelementptr inbounds i8, i8* %93, i64 %96
  store i8 0, i8* %97, align 1
  ret void
}

; Function Attrs: nounwind readonly
declare dso_local i64 @strlen(i8*) #1

; Function Attrs: noinline nounwind uwtable
define dso_local void @main() #0 {
  %1 = alloca [20 x i8], align 16
  %2 = alloca [4 x i8], align 1
  br label %3

3:                                                ; preds = %8, %0
  %4 = getelementptr inbounds [20 x i8], [20 x i8]* %1, i64 0, i64 0
  %5 = getelementptr inbounds [4 x i8], [4 x i8]* %2, i64 0, i64 0
  %6 = call i32 (i8*, ...) @__isoc99_scanf(i8* getelementptr inbounds ([6 x i8], [6 x i8]* @.str, i64 0, i64 0), i8* %4, i8* %5)
  %7 = icmp ne i32 %6, -1
  br i1 %7, label %8, label %13

8:                                                ; preds = %3
  %9 = getelementptr inbounds [20 x i8], [20 x i8]* %1, i64 0, i64 0
  %10 = getelementptr inbounds [4 x i8], [4 x i8]* %2, i64 0, i64 0
  call void @f(i8* %9, i8* %10)
  %11 = getelementptr inbounds [20 x i8], [20 x i8]* %1, i64 0, i64 0
  %12 = call i32 (i8*, ...) @printf(i8* getelementptr inbounds ([4 x i8], [4 x i8]* @.str.1, i64 0, i64 0), i8* %11)
  br label %3

13:                                               ; preds = %3
  ret void
}

declare dso_local i32 @__isoc99_scanf(i8*, ...) #2

declare dso_local i32 @printf(i8*, ...) #2


!llvm.module.flags = !{!0}
!llvm.ident = !{!1}

!0 = !{i32 1, !"wchar_size", i32 4}
!1 = !{!"clang version 10.0.0-4ubuntu1 "}
